target datalayout = "e-m:e-p270:32:32-p271:32:32-p272:64:64-i64:64-i128:128-f80:128-n8:16:32:64-S128"
target triple = "x86_64-pc-linux-gnu"

@ruby_current_ec = external thread_local global ptr, align 8

; Function Attrs: inlinehint nounwind sspstrong willreturn memory(none) uwtable
define internal zeroext i1 @RB_TEST(i64 noundef %0) #9 {
  %2 = alloca i64, align 8
  store i64 %0, ptr %2, align 8, !tbaa !12
  %3 = load i64, ptr %2, align 8, !tbaa !12
  %4 = and i64 %3, -5
  %5 = icmp ne i64 %4, 0
  ret i1 %5
}

; Function Attrs: inlinehint nounwind sspstrong uwtable
define internal ptr @rb_current_execution_context(i1 noundef zeroext %0) #1 {
  %2 = alloca i8, align 1
  %3 = alloca ptr, align 8
  %4 = zext i1 %0 to i8
  store i8 %4, ptr %2, align 1, !tbaa !69
  call void @llvm.lifetime.start.p0(i64 8, ptr %3) #8
  %5 = call align 8 ptr @llvm.threadlocal.address.p0(ptr align 8 @ruby_current_ec)
  %6 = load ptr, ptr %5, align 8, !tbaa !53
  store ptr %6, ptr %3, align 8, !tbaa !53
  %7 = load ptr, ptr %3, align 8, !tbaa !53
  call void @llvm.lifetime.end.p0(i64 8, ptr %3) #8
  ret ptr %7
}

; Function Attrs: nounwind sspstrong uwtable
define hidden i32 @rb_require_internal(i64 noundef %0) #0 {
  %2 = alloca i64, align 8
  %3 = alloca ptr, align 8
  store i64 %0, ptr %2, align 8, !tbaa !12
  call void @llvm.lifetime.start.p0(i64 8, ptr %3) #8
  %4 = call ptr @rb_current_execution_context(i1 noundef zeroext true)
  store ptr %4, ptr %3, align 8, !tbaa !53
  %5 = load ptr, ptr %3, align 8, !tbaa !53
  %6 = load i64, ptr %2, align 8, !tbaa !12
  %7 = call ptr @rb_ruby_verbose_ptr()
  %8 = load i64, ptr %7, align 8, !tbaa !12
  %9 = call zeroext i1 @RB_TEST(i64 noundef %8) #30
  %10 = call i32 @require_internal(ptr noundef %5, i64 noundef %6, i32 noundef 1, i1 noundef zeroext %9)
  call void @llvm.lifetime.end.p0(i64 8, ptr %3) #8
  ret i32 %10
}