; Function Attrs: nounwind sspstrong uwtable
define hidden i32 @rb_require_internal(i64 noundef %0) local_unnamed_addr #0 {
  %2 = tail call align 8 ptr @llvm.threadlocal.address.p0(ptr align 8 @ruby_current_ec)
  %3 = load ptr, ptr %2, align 8, !tbaa !55
  %4 = tail call ptr @rb_ruby_verbose_ptr() #7
  %5 = load i64, ptr %4, align 8, !tbaa !42
  %6 = and i64 %5, -5
  %7 = icmp ne i64 %6, 0
  %8 = tail call fastcc i32 @require_internal(ptr noundef %3, i64 noundef %0, i32 noundef 1, i1 noundef zeroext %7)
  ret i32 %8
}